; Function Attrs: mustprogress nofree norecurse nosync nounwind willreturn memory(argmem: read) uwtable
define noundef range(i32 -2147483647, -2147483648) i32 @_ZNK10open_spiel3nim7NimGame18NumDistinctActionsEv(ptr noundef nonnull readonly align 8 captures(none) dereferenceable(316) %0) unnamed_addr #5 align 2 {
  %2 = getelementptr inbounds nuw i8, ptr %0, i64 280
  %3 = load ptr, ptr %2, align 8
  %4 = getelementptr inbounds nuw i8, ptr %0, i64 288
  %5 = load ptr, ptr %4, align 8
  %6 = icmp eq ptr %3, %5
  %7 = getelementptr inbounds nuw i8, ptr %0, i64 304
  %8 = load i32, ptr %7, align 8
  %9 = getelementptr inbounds nuw i8, ptr %0, i64 312
  %10 = load i32, ptr %9, align 8
  %11 = mul nsw i32 %10, %8
  %12 = add nsw i32 %11, 1
  %.0 = select i1 %6, i32 0, i32 %12
  ret i32 %.0
}